ccopy_reg
_reconstructor
p0
(csklearn.discriminant_analysis
QuadraticDiscriminantAnalysis
p1
c__builtin__
object
p2
Ntp3
Rp4
(dp5
S'_sklearn_version'
p6
S'0.19.1'
p7
sS'store_covariances'
p8
NsS'tol'
p9
F0.0001
sS'priors'
p10
NsS'reg_param'
p11
F0.0
sS'store_covariance'
p12
I00
sb.