(dp0
S'METTS MARK'
p1
(dp2
S'to_messages'
p3
I807
sS'deferral_payments'
p4
S'NaN'
p5
sS'expenses'
p6
I94299
sS'poi'
p7
I00
sS'long_term_incentive'
p8
g5
sS'email_address'
p9
S'mark.metts@enron.com'
p10
sS'from_poi_to_this_person'
p11
I38
sS'deferred_income'
p12
g5
sS'restricted_stock_deferred'
p13
g5
sS'shared_receipt_with_poi'
p14
I702
sS'loan_advances'
p15
g5
sS'from_messages'
p16
I29
sS'other'
p17
I1740
sS'director_fees'
p18
g5
sS'bonus'
p19
I600000
sS'total_stock_value'
p20
I585062
sS'from_this_person_to_poi'
p21
I1
sS'restricted_stock'
p22
I585062
sS'salary'
p23
I365788
sS'total_payments'
p24
I1061827
sS'coefficient_bonus_salary'
p25
F1.247362322150606
sS'exercised_stock_options'
p26
g5
ssS'BAXTER JOHN C'
p27
(dp28
g3
g5
sg4
I1295738
sg6
I11200
sg7
I00
sg8
I1586055
sg9
g5
sg11
g5
sg12
I-1386055
sg13
g5
sg14
g5
sg15
g5
sg16
g5
sg17
I2660303
sg18
g5
sg19
I1200000
sg20
I10623258
sg21
g5
sg22
I3942714
sg23
I267102
sg24
I5634343
sg25
F1.564313008383354
sg26
I6680544
ssS'ELLIOTT STEVEN'
p29
(dp30
g3
g5
sg4
g5
sg6
I78552
sg7
I00
sg8
g5
sg9
S'steven.elliott@enron.com'
p31
sg11
g5
sg12
I-400729
sg13
g5
sg14
g5
sg15
g5
sg16
g5
sg17
I12961
sg18
g5
sg19
I350000
sg20
I6678735
sg21
g5
sg22
I1788391
sg23
I170941
sg24
I211725
sg25
F1.3132209141637659
sg26
I4890344
ssS'CORDES WILLIAM R'
p32
(dp33
g3
I764
sg4
g5
sg6
g5
sg7
I00
sg8
g5
sg9
S'bill.cordes@enron.com'
p34
sg11
I10
sg12
g5
sg13
g5
sg14
I58
sg15
g5
sg16
I12
sg17
g5
sg18
g5
sg19
g5
sg20
I1038185
sg21
I0
sg22
I386335
sg23
g5
sg24
g5
sg25
F2.0607396919815817
sg26
I651850
ssS'HANNON KEVIN P'
p35
(dp36
g3
I1045
sg4
g5
sg6
I34039
sg7
I01
sg8
I1617011
sg9
S'kevin.hannon@enron.com'
p37
sg11
I32
sg12
I-3117011
sg13
g5
sg14
I1035
sg15
g5
sg16
I32
sg17
I11350
sg18
g5
sg19
I1500000
sg20
I6391065
sg21
I21
sg22
I853064
sg23
I243293
sg24
I288682
sg25
F1.3739861036382424
sg26
I5538001
ssS'MORDAUNT KRISTINA M'
p38
(dp39
g3
g5
sg4
g5
sg6
I35018
sg7
I00
sg8
g5
sg9
S'kristina.mordaunt@enron.com'
p40
sg11
g5
sg12
g5
sg13
g5
sg14
g5
sg15
g5
sg16
g5
sg17
I1411
sg18
g5
sg19
I325000
sg20
I208510
sg21
g5
sg22
I208510
sg23
I267093
sg24
I628522
sg25
F1.0682750583351786
sg26
g5
ssS'MEYER ROCKFORD G'
p41
(dp42
g3
I232
sg4
I1848227
sg6
g5
sg7
I00
sg8
g5
sg9
S'rockford.meyer@enron.com'
p43
sg11
I0
sg12
g5
sg13
g5
sg14
I22
sg15
g5
sg16
I28
sg17
g5
sg18
g5
sg19
g5
sg20
I955873
sg21
I0
sg22
I462384
sg23
g5
sg24
I1848227
sg25
F2.0607396919815817
sg26
I493489
ssS'MCMAHON JEFFREY'
p44
(dp45
g3
I2355
sg4
g5
sg6
I137108
sg7
I00
sg8
I694862
sg9
S'jeffrey.mcmahon@enron.com'
p46
sg11
I58
sg12
g5
sg13
g5
sg14
I2228
sg15
g5
sg16
I48
sg17
I297353
sg18
g5
sg19
I2600000
sg20
I1662855
sg21
I26
sg22
I558801
sg23
I370448
sg24
I4099771
sg25
F3.343202444304095
sg26
I1104054
ssS'HORTON STANLEY C'
p47
(dp48
g3
I2350
sg4
I3131860
sg6
g5
sg7
I00
sg8
g5
sg9
S'stanley.horton@enron.com'
p49
sg11
I44
sg12
g5
sg13
g5
sg14
I1074
sg15
g5
sg16
I1073
sg17
g5
sg18
g5
sg19
g5
sg20
I7256648
sg21
I15
sg22
I2046079
sg23
g5
sg24
I3131860
sg25
F2.0607396919815817
sg26
I5210569
ssS'PIPER GREGORY F'
p50
(dp51
g3
I1238
sg4
I1130036
sg6
I43057
sg7
I00
sg8
g5
sg9
S'greg.piper@enron.com'
p52
sg11
I61
sg12
I-33333
sg13
I-409554
sg14
I742
sg15
g5
sg16
I222
sg17
I778
sg18
g5
sg19
I400000
sg20
I880290
sg21
I48
sg22
I409554
sg23
I197091
sg24
I1737629
sg25
F1.3344773302343214
sg26
I880290
ssS'HUMPHREY GENE E'
p53
(dp54
g3
I128
sg4
I2964506
sg6
I4994
sg7
I00
sg8
g5
sg9
S'gene.humphrey@enron.com'
p55
sg11
I10
sg12
g5
sg13
g5
sg14
I119
sg15
g5
sg16
I17
sg17
g5
sg18
g5
sg19
g5
sg20
I2282768
sg21
I17
sg22
g5
sg23
I130724
sg24
I3100224
sg25
F2.5047604383085873
sg26
I2282768
ssS'UMANOFF ADAM S'
p56
(dp57
g3
I111
sg4
g5
sg6
I53122
sg7
I00
sg8
g5
sg9
S'adam.umanoff@enron.com'
p58
sg11
I12
sg12
g5
sg13
g5
sg14
I41
sg15
g5
sg16
I18
sg17
g5
sg18
g5
sg19
I788750
sg20
g5
sg21
I0
sg22
g5
sg23
I288589
sg24
I1130461
sg25
F1.5751364736840103
sg26
g5
ssS'BLACHMAN JEREMY M'
p59
(dp60
g3
I2475
sg4
g5
sg6
I84208
sg7
I00
sg8
I831809
sg9
S'jeremy.blachman@enron.com'
p61
sg11
I25
sg12
g5
sg13
g5
sg14
I2326
sg15
g5
sg16
I14
sg17
I272
sg18
g5
sg19
I850000
sg20
I954354
sg21
I2
sg22
I189041
sg23
I248546
sg24
I2014835
sg25
F1.7249964271004565
sg26
I765313
ssS'SUNDE MARTIN'
p62
(dp63
g3
I2647
sg4
g5
sg6
g5
sg7
I00
sg8
I476451
sg9
S'marty.sunde@enron.com'
p64
sg11
I37
sg12
g5
sg13
g5
sg14
I2565
sg15
g5
sg16
I38
sg17
I111122
sg18
g5
sg19
I700000
sg20
I698920
sg21
I13
sg22
I698920
sg23
I257486
sg24
I1545059
sg25
F1.5277222432285802
sg26
g5
ssS'GIBBS DANA R'
p65
(dp66
g3
I169
sg4
I504610
sg6
g5
sg7
I00
sg8
I461912
sg9
S'dana.gibbs@enron.com'
p67
sg11
I0
sg12
g5
sg13
g5
sg14
I23
sg15
g5
sg16
I12
sg17
g5
sg18
g5
sg19
g5
sg20
I2218275
sg21
I0
sg22
g5
sg23
g5
sg24
I966522
sg25
F2.0607396919815817
sg26
I2218275
ssS'LOWRY CHARLES P'
p68
(dp69
g3
g5
sg4
g5
sg6
g5
sg7
I00
sg8
g5
sg9
g5
sg11
g5
sg12
g5
sg13
I-153686
sg14
g5
sg15
g5
sg16
g5
sg17
g5
sg18
g5
sg19
g5
sg20
I372205
sg21
g5
sg22
I153686
sg23
g5
sg24
g5
sg25
F2.0607396919815817
sg26
I372205
ssS'COLWELL WESLEY'
p70
(dp71
g3
I1758
sg4
I27610
sg6
I16514
sg7
I01
sg8
g5
sg9
S'wes.colwell@enron.com'
p72
sg11
I240
sg12
I-144062
sg13
g5
sg14
I1132
sg15
g5
sg16
I40
sg17
I101740
sg18
g5
sg19
I1200000
sg20
I698242
sg21
I11
sg22
I698242
sg23
I288542
sg24
I1490344
sg25
F3.1069107081765313
sg26
g5
ssS'MULLER MARK S'
p73
(dp74
g3
I136
sg4
I842924
sg6
g5
sg7
I00
sg8
I1725545
sg9
S's..muller@enron.com'
p75
sg11
I12
sg12
I-719000
sg13
g5
sg14
I114
sg15
g5
sg16
I16
sg17
I947
sg18
g5
sg19
I1100000
sg20
I1416848
sg21
I0
sg22
I360528
sg23
I251654
sg24
I3202070
sg25
F1.8739942348148773
sg26
I1056320
ssS'JACKSON CHARLENE R'
p76
(dp77
g3
I258
sg4
g5
sg6
I10181
sg7
I00
sg8
g5
sg9
S'charlene.jackson@enron.com'
p78
sg11
I25
sg12
g5
sg13
g5
sg14
I117
sg15
g5
sg16
I56
sg17
I2435
sg18
g5
sg19
I250000
sg20
I725735
sg21
I19
sg22
I540672
sg23
I288558
sg24
I551174
sg25
F0.9556604719440696
sg26
I185063
ssS'WESTFAHL RICHARD K'
p79
(dp80
g3
g5
sg4
g5
sg6
I51870
sg7
I00
sg8
I256191
sg9
S'dick.westfahl@enron.com'
p81
sg11
g5
sg12
I-10800
sg13
g5
sg14
g5
sg15
g5
sg16
g5
sg17
I401130
sg18
g5
sg19
g5
sg20
I384930
sg21
g5
sg22
I384930
sg23
I63744
sg24
I762135
sg25
F16.266541560341196
sg26
g5
ssS'WALTERS GARETH W'
p82
(dp83
g3
g5
sg4
I53625
sg6
I33785
sg7
I00
sg8
g5
sg9
g5
sg11
g5
sg12
g5
sg13
g5
sg14
g5
sg15
g5
sg16
g5
sg17
g5
sg18
g5
sg19
g5
sg20
I1030329
sg21
g5
sg22
g5
sg23
g5
sg24
I87410
sg25
F2.0607396919815817
sg26
I1030329
ssS'WALLS JR ROBERT H'
p84
(dp85
g3
I671
sg4
g5
sg6
I50936
sg7
I00
sg8
I540751
sg9
S'rob.walls@enron.com'
p86
sg11
I17
sg12
g5
sg13
g5
sg14
I215
sg15
g5
sg16
I146
sg17
I2
sg18
g5
sg19
I850000
sg20
I5898997
sg21
I0
sg22
I1552453
sg23
I357091
sg24
I1798780
sg25
F1.5254104644338773
sg26
I4346544
ssS'KITCHEN LOUISE'
p87
(dp88
g3
I8305
sg4
g5
sg6
I5774
sg7
I00
sg8
g5
sg9
S'louise.kitchen@enron.com'
p89
sg11
I251
sg12
g5
sg13
g5
sg14
I3669
sg15
g5
sg16
I1728
sg17
I93925
sg18
g5
sg19
I3100000
sg20
I547143
sg21
I194
sg22
I466101
sg23
I271442
sg24
I3471141
sg25
F4.31798846455197
sg26
I81042
ssS'CHAN RONNIE'
p90
(dp91
g3
g5
sg4
g5
sg6
g5
sg7
I00
sg8
g5
sg9
g5
sg11
g5
sg12
I-98784
sg13
I-32460
sg14
g5
sg15
g5
sg16
g5
sg17
g5
sg18
I98784
sg19
g5
sg20
g5
sg21
g5
sg22
I32460
sg23
g5
sg24
g5
sg25
F3.3968496728726993
sg26
g5
ssS'BELFER ROBERT'
p92
(dp93
g3
g5
sg4
I-102500
sg6
g5
sg7
I00
sg8
g5
sg9
g5
sg11
g5
sg12
g5
sg13
I44093
sg14
g5
sg15
g5
sg16
g5
sg17
g5
sg18
I3285
sg19
g5
sg20
I-44093
sg21
g5
sg22
g5
sg23
g5
sg24
I102500
sg25
F2.0607396919815817
sg26
I3285
ssS'SHANKMAN JEFFREY A'
p94
(dp95
g3
I3221
sg4
g5
sg6
I178979
sg7
I00
sg8
I554422
sg9
S'jeffrey.shankman@enron.com'
p96
sg11
I94
sg12
g5
sg13
g5
sg14
I1730
sg15
g5
sg16
I2681
sg17
I1191
sg18
g5
sg19
I2000000
sg20
I2072035
sg21
I83
sg22
I630137
sg23
I304110
sg24
I3038702
sg25
F2.9159139130031395
sg26
I1441898
ssS'WODRASKA JOHN'
p97
(dp98
g3
g5
sg4
g5
sg6
g5
sg7
I00
sg8
g5
sg9
S'john.wodraska@enron.com'
p99
sg11
g5
sg12
g5
sg13
g5
sg14
g5
sg15
g5
sg16
g5
sg17
I189583
sg18
g5
sg19
g5
sg20
g5
sg21
g5
sg22
g5
sg23
g5
sg24
I189583
sg25
F2.0607396919815817
sg26
g5
ssS'BERGSIEKER RICHARD P'
p100
(dp101
g3
I383
sg4
g5
sg6
I59175
sg7
I00
sg8
I180250
sg9
S'rick.bergsieker@enron.com'
p102
sg11
I4
sg12
I-485813
sg13
g5
sg14
I233
sg15
g5
sg16
I59
sg17
I427316
sg18
g5
sg19
I250000
sg20
I659249
sg21
I0
sg22
I659249
sg23
I187922
sg24
I618850
sg25
F1.0921400847514229
sg26
g5
ssS'URQUHART JOHN A'
p103
(dp104
g3
g5
sg4
g5
sg6
I228656
sg7
I00
sg8
g5
sg9
g5
sg11
g5
sg12
I-36666
sg13
g5
sg14
g5
sg15
g5
sg16
g5
sg17
g5
sg18
I36666
sg19
g5
sg20
g5
sg21
g5
sg22
g5
sg23
g5
sg24
I228656
sg25
F3.8610300737947436
sg26
g5
ssS'BIBI PHILIPPE A'
p105
(dp106
g3
I1607
sg4
g5
sg6
I38559
sg7
I00
sg8
I369721
sg9
S'philippe.bibi@enron.com'
p107
sg11
I23
sg12
g5
sg13
g5
sg14
I1336
sg15
g5
sg16
I40
sg17
I425688
sg18
g5
sg19
I1000000
sg20
I1843816
sg21
I8
sg22
I378082
sg23
I213625
sg24
I2047593
sg25
F1.9895557121360254
sg26
I1465734
ssS'PIRO JIM'
p108
(dp109
g3
I58
sg4
g5
sg6
g5
sg7
I00
sg8
g5
sg9
S'jim.piro@enron.com'
p110
sg11
I0
sg12
g5
sg13
g5
sg14
I3
sg15
g5
sg16
I16
sg17
g5
sg18
g5
sg19
g5
sg20
I47304
sg21
I1
sg22
I47304
sg23
g5
sg24
g5
sg25
F2.0607396919815817
sg26
g5
ssS'RIEKER PAULA H'
p111
(dp112
g3
I1328
sg4
I214678
sg6
I33271
sg7
I01
sg8
g5
sg9
S'paula.rieker@enron.com'
p113
sg11
I35
sg12
I-100000
sg13
g5
sg14
I1258
sg15
g5
sg16
I82
sg17
I1950
sg18
g5
sg19
I700000
sg20
I1918887
sg21
I48
sg22
I283649
sg23
I249201
sg24
I1099100
sg25
F2.290944184008637
sg26
I1635238
ssS'WHALEY DAVID A'
p114
(dp115
g3
g5
sg4
g5
sg6
g5
sg7
I00
sg8
g5
sg9
g5
sg11
g5
sg12
g5
sg13
g5
sg14
g5
sg15
g5
sg16
g5
sg17
g5
sg18
g5
sg19
g5
sg20
I98718
sg21
g5
sg22
g5
sg23
g5
sg24
g5
sg25
F2.0607396919815817
sg26
I98718
ssS'BECK SALLY W'
p116
(dp117
g3
I7315
sg4
g5
sg6
I37172
sg7
I00
sg8
g5
sg9
S'sally.beck@enron.com'
p118
sg11
I144
sg12
g5
sg13
g5
sg14
I2639
sg15
g5
sg16
I4343
sg17
I566
sg18
g5
sg19
I700000
sg20
I126027
sg21
I386
sg22
I126027
sg23
I231330
sg24
I969068
sg25
F1.5769099536800713
sg26
g5
ssS'HAUG DAVID L'
p119
(dp120
g3
I573
sg4
g5
sg6
I475
sg7
I00
sg8
g5
sg9
S'david.haug@enron.com'
p121
sg11
I4
sg12
g5
sg13
g5
sg14
I471
sg15
g5
sg16
I19
sg17
g5
sg18
g5
sg19
g5
sg20
I2217299
sg21
I7
sg22
I2217299
sg23
g5
sg24
I475
sg25
F2.0607396919815817
sg26
g5
ssS'ECHOLS JOHN B'
p122
(dp123
g3
g5
sg4
g5
sg6
I21530
sg7
I00
sg8
I2234774
sg9
S'john.echols@enron.com'
p124
sg11
g5
sg12
g5
sg13
g5
sg14
g5
sg15
g5
sg16
g5
sg17
I53775
sg18
g5
sg19
I200000
sg20
I1008941
sg21
g5
sg22
I407503
sg23
I182245
sg24
I2692324
sg25
F1.0232609991699635
sg26
I601438
ssS'MENDELSOHN JOHN'
p125
(dp126
g3
g5
sg4
g5
sg6
I148
sg7
I00
sg8
g5
sg9
g5
sg11
g5
sg12
I-103750
sg13
g5
sg14
g5
sg15
g5
sg16
g5
sg17
g5
sg18
I103750
sg19
g5
sg20
g5
sg21
g5
sg22
g5
sg23
g5
sg24
I148
sg25
F3.366159617966905
sg26
g5
ssS'HICKERSON GARY J'
p127
(dp128
g3
I1320
sg4
g5
sg6
I98849
sg7
I00
sg8
I69223
sg9
S'gary.hickerson@enron.com'
p129
sg11
I40
sg12
g5
sg13
g5
sg14
I900
sg15
g5
sg16
I27
sg17
I1936
sg18
g5
sg19
I1700000
sg20
I441096
sg21
I1
sg22
I441096
sg23
I211788
sg24
I2081796
sg25
F2.8770699082922464
sg26
g5
ssS'CLINE KENNETH W'
p130
(dp131
g3
g5
sg4
g5
sg6
g5
sg7
I00
sg8
g5
sg9
g5
sg11
g5
sg12
g5
sg13
I-472568
sg14
g5
sg15
g5
sg16
g5
sg17
g5
sg18
g5
sg19
g5
sg20
I189518
sg21
g5
sg22
I662086
sg23
g5
sg24
g5
sg25
F2.0607396919815817
sg26
g5
ssS'LEWIS RICHARD'
p132
(dp133
g3
I952
sg4
g5
sg6
g5
sg7
I00
sg8
g5
sg9
S'richard.lewis@enron.com'
p134
sg11
I10
sg12
g5
sg13
g5
sg14
I739
sg15
g5
sg16
I26
sg17
g5
sg18
g5
sg19
g5
sg20
I850477
sg21
I0
sg22
g5
sg23
g5
sg24
g5
sg25
F2.0607396919815817
sg26
I850477
ssS'HAYES ROBERT E'
p135
(dp136
g3
I504
sg4
I7961
sg6
g5
sg7
I00
sg8
g5
sg9
S'robert.hayes@enron.com'
p137
sg11
I16
sg12
g5
sg13
g5
sg14
I50
sg15
g5
sg16
I12
sg17
g5
sg18
g5
sg19
g5
sg20
I151418
sg21
I0
sg22
I151418
sg23
g5
sg24
I7961
sg25
F2.0607396919815817
sg26
g5
ssS'KOPPER MICHAEL J'
p138
(dp139
g3
g5
sg4
g5
sg6
I118134
sg7
I01
sg8
I602671
sg9
S'michael.kopper@enron.com'
p140
sg11
g5
sg12
g5
sg13
g5
sg14
g5
sg15
g5
sg16
g5
sg17
I907502
sg18
g5
sg19
I800000
sg20
I985032
sg21
g5
sg22
I985032
sg23
I224305
sg24
I2652612
sg25
F1.7148339974686622
sg26
g5
ssS'LEFF DANIEL P'
p141
(dp142
g3
I2822
sg4
g5
sg6
g5
sg7
I00
sg8
I1387399
sg9
S'dan.leff@enron.com'
p143
sg11
I67
sg12
g5
sg13
g5
sg14
I2672
sg15
g5
sg16
I63
sg17
I3083
sg18
g5
sg19
I1000000
sg20
I360528
sg21
I14
sg22
I360528
sg23
I273746
sg24
I2664228
sg25
F1.849622786377419
sg26
g5
ssS'LAVORATO JOHN J'
p144
(dp145
g3
I7259
sg4
g5
sg6
I49537
sg7
I00
sg8
I2035380
sg9
S'john.lavorato@enron.com'
p146
sg11
I528
sg12
g5
sg13
g5
sg14
I3962
sg15
g5
sg16
I2585
sg17
I1552
sg18
g5
sg19
I8000000
sg20
I5167144
sg21
I411
sg22
I1008149
sg23
I339288
sg24
I10425757
sg25
F9.32380447261043
sg26
I4158995
ssS'BERBERIAN DAVID'
p147
(dp148
g3
g5
sg4
g5
sg6
I11892
sg7
I00
sg8
g5
sg9
S'david.berberian@enron.com'
p149
sg11
g5
sg12
g5
sg13
g5
sg14
g5
sg15
g5
sg16
g5
sg17
g5
sg18
g5
sg19
g5
sg20
I2493616
sg21
g5
sg22
I869220
sg23
I216582
sg24
I228474
sg25
F2.2351451617585454
sg26
I1624396
ssS'DETMERING TIMOTHY J'
p150
(dp151
g3
g5
sg4
I875307
sg6
I52255
sg7
I00
sg8
I415657
sg9
S'timothy.detmering@enron.com'
p152
sg11
g5
sg12
I-775241
sg13
I-315068
sg14
g5
sg15
g5
sg16
g5
sg17
I1105
sg18
g5
sg19
I425000
sg20
I2027865
sg21
g5
sg22
I315068
sg23
I210500
sg24
I1204583
sg25
F1.2176027983009736
sg26
I2027865
ssS'WAKEHAM JOHN'
p153
(dp154
g3
g5
sg4
g5
sg6
I103773
sg7
I00
sg8
g5
sg9
g5
sg11
g5
sg12
g5
sg13
g5
sg14
g5
sg15
g5
sg16
g5
sg17
g5
sg18
I109298
sg19
g5
sg20
g5
sg21
g5
sg22
g5
sg23
g5
sg24
I213071
sg25
F2.0607396919815817
sg26
g5
ssS'POWERS WILLIAM'
p155
(dp156
g3
I653
sg4
g5
sg6
g5
sg7
I00
sg8
g5
sg9
S'ken.powers@enron.com'
p157
sg11
I0
sg12
I-17500
sg13
g5
sg14
I12
sg15
g5
sg16
I26
sg17
g5
sg18
I17500
sg19
g5
sg20
g5
sg21
I0
sg22
g5
sg23
g5
sg24
g5
sg25
F4.0428495943562694
sg26
g5
ssS'GOLD JOSEPH'
p158
(dp159
g3
g5
sg4
g5
sg6
g5
sg7
I00
sg8
I304805
sg9
S'joe.gold@enron.com'
p160
sg11
g5
sg12
g5
sg13
g5
sg14
g5
sg15
g5
sg16
g5
sg17
I819288
sg18
g5
sg19
I750000
sg20
I877611
sg21
g5
sg22
I441096
sg23
I272880
sg24
I2146973
sg25
F1.5587344451684664
sg26
I436515
ssS'BANNANTINE JAMES M'
p161
(dp162
g3
I566
sg4
g5
sg6
I56301
sg7
I00
sg8
g5
sg9
S'james.bannantine@enron.com'
p163
sg11
I39
sg12
I-5104
sg13
I-560222
sg14
I465
sg15
g5
sg16
I29
sg17
I864523
sg18
g5
sg19
g5
sg20
I5243487
sg21
I0
sg22
I1757552
sg23
I477
sg24
I916197
sg25
F3.142497265153093
sg26
I4046157
ssS'DUNCAN JOHN H'
p164
(dp165
g3
g5
sg4
g5
sg6
g5
sg7
I00
sg8
g5
sg9
g5
sg11
g5
sg12
I-25000
sg13
g5
sg14
g5
sg15
g5
sg16
g5
sg17
g5
sg18
I102492
sg19
g5
sg20
I371750
sg21
g5
sg22
g5
sg23
g5
sg24
I77492
sg25
F3.9690149397171397
sg26
I371750
ssS'SHAPIRO RICHARD S'
p166
(dp167
g3
I15149
sg4
g5
sg6
I137767
sg7
I00
sg8
g5
sg9
S'richard.shapiro@enron.com'
p168
sg11
I74
sg12
g5
sg13
g5
sg14
I4527
sg15
g5
sg16
I1215
sg17
I705
sg18
g5
sg19
I650000
sg20
I987001
sg21
I65
sg22
I379164
sg23
I269076
sg24
I1057548
sg25
F1.4480795599886576
sg26
I607837
ssS'SHERRIFF JOHN R'
p169
(dp170
g3
I3187
sg4
g5
sg6
g5
sg7
I00
sg8
I554422
sg9
S'john.sherriff@enron.com'
p171
sg11
I28
sg12
g5
sg13
g5
sg14
I2103
sg15
g5
sg16
I92
sg17
I1852186
sg18
g5
sg19
I1500000
sg20
I3128982
sg21
I23
sg22
I1293424
sg23
I428780
sg24
I4335388
sg25
F2.0607926075662384
sg26
I1835558
ssS'SHELBY REX'
p172
(dp173
g3
I225
sg4
g5
sg6
I22884
sg7
I01
sg8
g5
sg9
S'rex.shelby@enron.com'
p174
sg11
I13
sg12
I-4167
sg13
g5
sg14
I91
sg15
g5
sg16
I39
sg17
I1573324
sg18
g5
sg19
I200000
sg20
I2493616
sg21
I14
sg22
I869220
sg23
I211844
sg24
I2003885
sg25
F0.9451694589627381
sg26
I1624396
ssS'LEMAISTRE CHARLES'
p175
(dp176
g3
g5
sg4
g5
sg6
g5
sg7
I00
sg8
g5
sg9
g5
sg11
g5
sg12
I-25000
sg13
g5
sg14
g5
sg15
g5
sg16
g5
sg17
g5
sg18
I112492
sg19
g5
sg20
I412878
sg21
g5
sg22
g5
sg23
g5
sg24
I87492
sg25
F3.9690149397171397
sg26
I412878
ssS'DEFFNER JOSEPH M'
p177
(dp178
g3
I714
sg4
g5
sg6
I41626
sg7
I00
sg8
I335349
sg9
S'joseph.deffner@enron.com'
p179
sg11
I115
sg12
g5
sg13
g5
sg14
I552
sg15
g5
sg16
I74
sg17
I25553
sg18
g5
sg19
I600000
sg20
I159211
sg21
I4
sg22
I141833
sg23
I206121
sg24
I1208649
sg25
F1.500372973369106
sg26
I17378
ssS'KISHKILL JOSEPH G'
p180
(dp181
g3
g5
sg4
g5
sg6
I116335
sg7
I00
sg8
g5
sg9
S'joe.kishkill@enron.com'
p182
sg11
g5
sg12
I-51042
sg13
g5
sg14
g5
sg15
g5
sg16
g5
sg17
I465357
sg18
g5
sg19
g5
sg20
I1034346
sg21
g5
sg22
I1034346
sg23
I174246
sg24
I704896
sg25
F5.560948981188853
sg26
g5
ssS'WHALLEY LAWRENCE G'
p183
(dp184
g3
I6019
sg4
g5
sg6
I57838
sg7
I00
sg8
I808346
sg9
S'greg.whalley@enron.com'
p185
sg11
I186
sg12
g5
sg13
g5
sg14
I3920
sg15
g5
sg16
I556
sg17
I301026
sg18
g5
sg19
I3000000
sg20
I6079137
sg21
I24
sg22
I2796177
sg23
I510364
sg24
I4677574
sg25
F3.2811109512140244
sg26
I3282960
ssS'MCCARTY DANNY J'
p186
(dp187
g3
I1433
sg4
g5
sg6
g5
sg7
I00
sg8
g5
sg9
S'danny.mccarty@enron.com'
p188
sg11
I25
sg12
g5
sg13
g5
sg14
I508
sg15
g5
sg16
I215
sg17
g5
sg18
g5
sg19
g5
sg20
I758931
sg21
I2
sg22
I94556
sg23
g5
sg24
g5
sg25
F2.0607396919815817
sg26
I664375
ssS'MCCONNELL MICHAEL S'
p189
(dp190
g3
I3329
sg4
g5
sg6
I81364
sg7
I00
sg8
I554422
sg9
S'mike.mcconnell@enron.com'
p191
sg11
I92
sg12
g5
sg13
g5
sg14
I2189
sg15
g5
sg16
I2742
sg17
I540
sg18
g5
sg19
I1100000
sg20
I3101279
sg21
I194
sg22
I1478269
sg23
I365038
sg24
I2101364
sg25
F1.7768433228812996
sg26
I1623010
ssS'DELAINEY DAVID W'
p192
(dp193
g3
I3093
sg4
g5
sg6
I86174
sg7
I01
sg8
I1294981
sg9
S'david.delainey@enron.com'
p194
sg11
I66
sg12
g5
sg13
g5
sg14
I2097
sg15
g5
sg16
I3069
sg17
I1661
sg18
g5
sg19
I3000000
sg20
I3614261
sg21
I609
sg22
I1323148
sg23
I365163
sg24
I4747979
sg25
F3.7846135300561685
sg26
I2291113
ssS'SULLIVAN-SHAKLOVITZ COLLEEN'
p195
(dp196
g3
g5
sg4
I181993
sg6
g5
sg7
I00
sg8
I554422
sg9
g5
sg11
g5
sg12
g5
sg13
g5
sg14
g5
sg15
g5
sg16
g5
sg17
I162
sg18
g5
sg19
I100000
sg20
I1362375
sg21
g5
sg22
g5
sg23
I162779
sg24
I999356
sg25
F0.9156002040456048
sg26
I1362375
ssS'WROBEL BRUCE'
p197
(dp198
g3
g5
sg4
g5
sg6
g5
sg7
I00
sg8
g5
sg9
g5
sg11
g5
sg12
g5
sg13
g5
sg14
g5
sg15
g5
sg16
g5
sg17
g5
sg18
g5
sg19
g5
sg20
I139130
sg21
g5
sg22
g5
sg23
g5
sg24
g5
sg25
F2.0607396919815817
sg26
I139130
ssS'LINDHOLM TOD A'
p199
(dp200
g3
g5
sg4
I204075
sg6
I57727
sg7
I00
sg8
I175000
sg9
S'tod.lindholm@enron.com'
p201
sg11
g5
sg12
g5
sg13
g5
sg14
g5
sg15
g5
sg16
g5
sg17
I2630
sg18
g5
sg19
I200000
sg20
I3064208
sg21
g5
sg22
I514847
sg23
I236457
sg24
I875889
sg25
F0.9554046529734577
sg26
I2549361
ssS'MEYER JEROME J'
p202
(dp203
g3
g5
sg4
g5
sg6
I2151
sg7
I00
sg8
g5
sg9
g5
sg11
g5
sg12
I-38346
sg13
g5
sg14
g5
sg15
g5
sg16
g5
sg17
g5
sg18
I38346
sg19
g5
sg20
g5
sg21
g5
sg22
g5
sg23
g5
sg24
I2151
sg25
F3.846123031289442
sg26
g5
ssS'LAY KENNETH L'
p204
(dp205
g3
I4273
sg4
I202911
sg6
I99832
sg7
I01
sg8
I3600000
sg9
S'kenneth.lay@enron.com'
p206
sg11
I123
sg12
I-300000
sg13
g5
sg14
I2411
sg15
I81525000
sg16
I36
sg17
I10359729
sg18
g5
sg19
I7000000
sg20
I49110078
sg21
I16
sg22
I14761694
sg23
I1072321
sg24
I103559793
sg25
F5.319455142054956
sg26
I34348384
ssS'BUTTS ROBERT H'
p207
(dp208
g3
g5
sg4
g5
sg6
I9410
sg7
I00
sg8
I175000
sg9
S'bob.butts@enron.com'
p209
sg11
g5
sg12
I-75000
sg13
g5
sg14
g5
sg15
g5
sg16
g5
sg17
I150656
sg18
g5
sg19
I750000
sg20
I417619
sg21
g5
sg22
I417619
sg23
I261516
sg24
I1271582
sg25
F2.451592197696395
sg26
g5
ssS'OLSON CINDY K'
p210
(dp211
g3
I1184
sg4
I77716
sg6
I63791
sg7
I00
sg8
I100000
sg9
S'cindy.olson@enron.com'
p212
sg11
I20
sg12
g5
sg13
g5
sg14
I856
sg15
g5
sg16
I52
sg17
I972
sg18
g5
sg19
I750000
sg20
I2606763
sg21
I15
sg22
I969729
sg23
I329078
sg24
I1321557
sg25
F1.4624866905712761
sg26
I1637034
ssS'MCDONALD REBECCA'
p213
(dp214
g3
I894
sg4
g5
sg6
g5
sg7
I00
sg8
g5
sg9
S'rebecca.mcdonald@enron.com'
p215
sg11
I54
sg12
g5
sg13
g5
sg14
I720
sg15
g5
sg16
I13
sg17
g5
sg18
g5
sg19
g5
sg20
I1691366
sg21
I1
sg22
I934065
sg23
g5
sg24
g5
sg25
F2.0607396919815817
sg26
I757301
ssS'CUMBERLAND MICHAEL S'
p216
(dp217
g3
g5
sg4
g5
sg6
I22344
sg7
I00
sg8
I275000
sg9
g5
sg11
g5
sg12
g5
sg13
g5
sg14
g5
sg15
g5
sg16
g5
sg17
I713
sg18
g5
sg19
I325000
sg20
I207940
sg21
g5
sg22
I207940
sg23
I184899
sg24
I807956
sg25
F1.182911700773738
sg26
g5
ssS'GAHN ROBERT S'
p218
(dp219
g3
g5
sg4
I73122
sg6
I50080
sg7
I00
sg8
g5
sg9
g5
sg11
g5
sg12
I-1042
sg13
g5
sg14
g5
sg15
g5
sg16
g5
sg17
I76547
sg18
g5
sg19
I509870
sg20
I318607
sg21
g5
sg22
I235370
sg23
I192008
sg24
I900585
sg25
F2.6465268065268064
sg26
I83237
ssS'MCCLELLAN GEORGE'
p220
(dp221
g3
I1744
sg4
g5
sg6
I228763
sg7
I00
sg8
g5
sg9
S'george.mcclellan@enron.com'
p222
sg11
I52
sg12
I-125000
sg13
g5
sg14
I1469
sg15
g5
sg16
I49
sg17
I51587
sg18
g5
sg19
I900000
sg20
I947861
sg21
I0
sg22
I441096
sg23
I263413
sg24
I1318763
sg25
F2.638943598695203
sg26
I506765
ssS'HERMANN ROBERT J'
p223
(dp224
g3
g5
sg4
g5
sg6
I48357
sg7
I00
sg8
I150000
sg9
S'robert.hermann@enron.com'
p225
sg11
g5
sg12
I-280000
sg13
g5
sg14
g5
sg15
g5
sg16
g5
sg17
I416441
sg18
g5
sg19
I700000
sg20
I668132
sg21
g5
sg22
I480632
sg23
I262663
sg24
I1297461
sg25
F1.8059090079846978
sg26
I187500
ssS'SCRIMSHAW MATTHEW'
p226
(dp227
g3
g5
sg4
g5
sg6
g5
sg7
I00
sg8
g5
sg9
S'matthew.scrimshaw@enron.com'
p228
sg11
g5
sg12
g5
sg13
g5
sg14
g5
sg15
g5
sg16
g5
sg17
g5
sg18
g5
sg19
g5
sg20
I759557
sg21
g5
sg22
g5
sg23
g5
sg24
g5
sg25
F2.0607396919815817
sg26
I759557
ssS'GATHMANN WILLIAM D'
p229
(dp230
g3
g5
sg4
g5
sg6
g5
sg7
I00
sg8
g5
sg9
g5
sg11
g5
sg12
g5
sg13
I-72419
sg14
g5
sg15
g5
sg16
g5
sg17
g5
sg18
g5
sg19
g5
sg20
I1945360
sg21
g5
sg22
I264013
sg23
g5
sg24
g5
sg25
F2.0607396919815817
sg26
I1753766
ssS'HAEDICKE MARK E'
p231
(dp232
g3
I4009
sg4
I2157527
sg6
I76169
sg7
I00
sg8
I983346
sg9
S'mark.haedicke@enron.com'
p233
sg11
I180
sg12
I-934484
sg13
I-329825
sg14
I1847
sg15
g5
sg16
I1941
sg17
I52382
sg18
g5
sg19
I1150000
sg20
I803094
sg21
I61
sg22
I524169
sg23
I374125
sg24
I3859065
sg25
F1.5929005531828073
sg26
I608750
ssS'BOWEN JR RAYMOND M'
p234
(dp235
g3
I1858
sg4
g5
sg6
I65907
sg7
I01
sg8
I974293
sg9
S'raymond.bowen@enron.com'
p236
sg11
I140
sg12
I-833
sg13
g5
sg14
I1593
sg15
g5
sg16
I27
sg17
I1621
sg18
g5
sg19
I1350000
sg20
I252055
sg21
I15
sg22
I252055
sg23
I278601
sg24
I2669589
sg25
F4.834175511927683
sg26
g5
ssS'GILLIS JOHN'
p237
(dp238
g3
g5
sg4
g5
sg6
g5
sg7
I00
sg8
g5
sg9
g5
sg11
g5
sg12
g5
sg13
g5
sg14
g5
sg15
g5
sg16
g5
sg17
g5
sg18
g5
sg19
g5
sg20
I85641
sg21
g5
sg22
I75838
sg23
g5
sg24
g5
sg25
F2.0607396919815817
sg26
I9803
ssS'FITZGERALD JAY L'
p239
(dp240
g3
I936
sg4
g5
sg6
I23870
sg7
I00
sg8
I556416
sg9
S'jay.fitzgerald@enron.com'
p241
sg11
I1
sg12
g5
sg13
g5
sg14
I723
sg15
g5
sg16
I16
sg17
I285414
sg18
g5
sg19
I350000
sg20
I1621236
sg21
I8
sg22
I956775
sg23
I199157
sg24
I1414857
sg25
F1.1933371992954753
sg26
I664461
ssS'MORAN MICHAEL P'
p242
(dp243
g3
I672
sg4
g5
sg6
g5
sg7
I00
sg8
g5
sg9
S'michael.moran@enron.com'
p244
sg11
I0
sg12
g5
sg13
g5
sg14
I127
sg15
g5
sg16
I19
sg17
g5
sg18
g5
sg19
g5
sg20
I221141
sg21
I0
sg22
I161602
sg23
g5
sg24
g5
sg25
F2.0607396919815817
sg26
I59539
ssS'REDMOND BRIAN L'
p245
(dp246
g3
I1671
sg4
g5
sg6
I14689
sg7
I00
sg8
g5
sg9
S'brian.redmond@enron.com'
p247
sg11
I204
sg12
g5
sg13
g5
sg14
I1063
sg15
g5
sg16
I221
sg17
g5
sg18
g5
sg19
g5
sg20
I7890324
sg21
I49
sg22
I381285
sg23
I96840
sg24
I111529
sg25
F2.629959698021091
sg26
I7509039
ssS'BAZELIDES PHILIP J'
p248
(dp249
g3
g5
sg4
I684694
sg6
g5
sg7
I00
sg8
I93750
sg9
g5
sg11
g5
sg12
g5
sg13
g5
sg14
g5
sg15
g5
sg16
g5
sg17
I874
sg18
g5
sg19
g5
sg20
I1599641
sg21
g5
sg22
g5
sg23
I80818
sg24
I860136
sg25
F2.6936237914939762
sg26
I1599641
ssS'BELDEN TIMOTHY N'
p250
(dp251
g3
I7991
sg4
I2144013
sg6
I17355
sg7
I01
sg8
g5
sg9
S'tim.belden@enron.com'
p252
sg11
I228
sg12
I-2334434
sg13
g5
sg14
I5521
sg15
g5
sg16
I484
sg17
I210698
sg18
g5
sg19
I5249999
sg20
I1110705
sg21
I108
sg22
I157569
sg23
I213999
sg24
I5501630
sg25
F2.976116303626582
sg26
I953136
ssS'DURAN WILLIAM D'
p253
(dp254
g3
I904
sg4
g5
sg6
I25785
sg7
I00
sg8
I1105218
sg9
S'w.duran@enron.com'
p255
sg11
I106
sg12
g5
sg13
g5
sg14
I599
sg15
g5
sg16
I12
sg17
I1568
sg18
g5
sg19
I750000
sg20
I1640910
sg21
I3
sg22
I189041
sg23
I210692
sg24
I2093263
sg25
F1.6811665008534584
sg26
I1451869
ssS'THORN TERENCE H'
p256
(dp257
g3
I266
sg4
I16586
sg6
I46145
sg7
I00
sg8
I200000
sg9
S'terence.thorn@enron.com'
p258
sg11
I0
sg12
g5
sg13
g5
sg14
I73
sg15
g5
sg16
I41
sg17
I426629
sg18
g5
sg19
g5
sg20
I4817796
sg21
I0
sg22
I365320
sg23
I222093
sg24
I911453
sg25
F2.2198080575788928
sg26
I4452476
ssS'FASTOW ANDREW S'
p259
(dp260
g3
g5
sg4
g5
sg6
I55921
sg7
I01
sg8
I1736055
sg9
S'andrew.fastow@enron.com'
p261
sg11
g5
sg12
I-1386055
sg13
g5
sg14
g5
sg15
g5
sg16
g5
sg17
I277464
sg18
g5
sg19
I1300000
sg20
I1794412
sg21
g5
sg22
I1794412
sg23
I440698
sg24
I2424083
sg25
F1.4703985705785072
sg26
g5
ssS'FOY JOE'
p262
(dp263
g3
I57
sg4
I181755
sg6
g5
sg7
I00
sg8
g5
sg9
S'tracy.foy@enron.com'
p264
sg11
I0
sg12
g5
sg13
g5
sg14
I2
sg15
g5
sg16
I13
sg17
g5
sg18
g5
sg19
g5
sg20
I343434
sg21
I0
sg22
g5
sg23
g5
sg24
I181755
sg25
F2.0607396919815817
sg26
I343434
ssS'CALGER CHRISTOPHER F'
p265
(dp266
g3
I2598
sg4
g5
sg6
I35818
sg7
I01
sg8
I375304
sg9
S'christopher.calger@enron.com'
p267
sg11
I199
sg12
I-262500
sg13
g5
sg14
I2188
sg15
g5
sg16
I144
sg17
I486
sg18
g5
sg19
I1250000
sg20
I126027
sg21
I25
sg22
I126027
sg23
I240189
sg24
I1639297
sg25
F3.008818573710584
sg26
g5
ssS'RICE KENNETH D'
p268
(dp269
g3
I905
sg4
g5
sg6
I46950
sg7
I01
sg8
I1617011
sg9
S'ken.rice@enron.com'
p270
sg11
I42
sg12
I-3504386
sg13
g5
sg14
I864
sg15
g5
sg16
I18
sg17
I174839
sg18
g5
sg19
I1750000
sg20
I22542539
sg21
I4
sg22
I2748364
sg23
I420636
sg24
I505050
sg25
F1.3386895665807732
sg26
I19794175
ssS'KAMINSKI WINCENTY J'
p271
(dp272
g3
I4607
sg4
g5
sg6
I83585
sg7
I00
sg8
I323466
sg9
S'vince.kaminski@enron.com'
p273
sg11
I41
sg12
g5
sg13
g5
sg14
I583
sg15
g5
sg16
I14368
sg17
I4669
sg18
g5
sg19
I400000
sg20
I976037
sg21
I171
sg22
I126027
sg23
I275101
sg24
I1086821
sg25
F1.1458843444127433
sg26
I850010
ssS'COX DAVID'
p274
(dp275
g3
I102
sg4
g5
sg6
I27861
sg7
I00
sg8
g5
sg9
S'chip.cox@enron.com'
p276
sg11
I0
sg12
I-41250
sg13
g5
sg14
I71
sg15
g5
sg16
I33
sg17
I494
sg18
g5
sg19
I800000
sg20
I495633
sg21
I4
sg22
I378082
sg23
I314288
sg24
I1101393
sg25
F2.3661324527898566
sg26
I117551
ssS'OVERDYKE JR JERE C'
p277
(dp278
g3
g5
sg4
g5
sg6
I18834
sg7
I00
sg8
I135836
sg9
S'jere.overdyke@enron.com'
p279
sg11
g5
sg12
g5
sg13
g5
sg14
g5
sg15
g5
sg16
g5
sg17
I176
sg18
g5
sg19
g5
sg20
I7307594
sg21
g5
sg22
I2041016
sg23
I94941
sg24
I249787
sg25
F2.6373478065192995
sg26
I5266578
ssS'PEREIRA PAULO V. FERRAZ'
p280
(dp281
g3
g5
sg4
g5
sg6
I27942
sg7
I00
sg8
g5
sg9
g5
sg11
g5
sg12
I-101250
sg13
g5
sg14
g5
sg15
g5
sg16
g5
sg17
g5
sg18
I101250
sg19
g5
sg20
g5
sg21
g5
sg22
g5
sg23
g5
sg24
I27942
sg25
F3.3815108318811333
sg26
g5
ssS'STABLER FRANK'
p282
(dp283
g3
g5
sg4
g5
sg6
I16514
sg7
I00
sg8
g5
sg9
S'frank.stabler@enron.com'
p284
sg11
g5
sg12
g5
sg13
g5
sg14
g5
sg15
g5
sg16
g5
sg17
I356071
sg18
g5
sg19
I500000
sg20
I511734
sg21
g5
sg22
I511734
sg23
I239502
sg24
I1112087
sg25
F1.3174668510040004
sg26
g5
ssS'SKILLING JEFFREY K'
p285
(dp286
g3
I3627
sg4
g5
sg6
I29336
sg7
I01
sg8
I1920000
sg9
S'jeff.skilling@enron.com'
p287
sg11
I88
sg12
g5
sg13
g5
sg14
I2042
sg15
g5
sg16
I108
sg17
I22122
sg18
g5
sg19
I5600000
sg20
I26093672
sg21
I30
sg22
I6843672
sg23
I1111258
sg24
I8682716
sg25
F3.6524382661620547
sg26
I19250000
ssS'BLAKE JR. NORMAN P'
p288
(dp289
g3
g5
sg4
g5
sg6
I1279
sg7
I00
sg8
g5
sg9
g5
sg11
g5
sg12
I-113784
sg13
g5
sg14
g5
sg15
g5
sg16
g5
sg17
g5
sg18
I113784
sg19
g5
sg20
g5
sg21
g5
sg22
g5
sg23
g5
sg24
I1279
sg25
F3.306486977258991
sg26
g5
ssS'SHERRICK JEFFREY B'
p290
(dp291
g3
I613
sg4
g5
sg6
g5
sg7
I00
sg8
g5
sg9
S'jeffrey.sherrick@enron.com'
p292
sg11
I39
sg12
g5
sg13
g5
sg14
I583
sg15
g5
sg16
I25
sg17
g5
sg18
g5
sg19
g5
sg20
I1832468
sg21
I18
sg22
I405999
sg23
g5
sg24
g5
sg25
F2.0607396919815817
sg26
I1426469
ssS'PRENTICE JAMES'
p293
(dp294
g3
g5
sg4
I564348
sg6
g5
sg7
I00
sg8
g5
sg9
S'james.prentice@enron.com'
p295
sg11
g5
sg12
g5
sg13
g5
sg14
g5
sg15
g5
sg16
g5
sg17
g5
sg18
g5
sg19
g5
sg20
I1095040
sg21
g5
sg22
I208809
sg23
g5
sg24
I564348
sg25
F2.0607396919815817
sg26
I886231
ssS'GRAY RODNEY'
p296
(dp297
g3
g5
sg4
I93585
sg6
g5
sg7
I00
sg8
I365625
sg9
g5
sg11
g5
sg12
g5
sg13
g5
sg14
g5
sg15
g5
sg16
g5
sg17
I680833
sg18
g5
sg19
g5
sg20
g5
sg21
g5
sg22
g5
sg23
I6615
sg24
I1146658
sg25
F3.0337410861639333
sg26
g5
ssS'PICKERING MARK R'
p298
(dp299
g3
I898
sg4
g5
sg6
I31653
sg7
I00
sg8
g5
sg9
S'mark.pickering@enron.com'
p300
sg11
I7
sg12
g5
sg13
g5
sg14
I728
sg15
I400000
sg16
I67
sg17
g5
sg18
g5
sg19
I300000
sg20
I28798
sg21
I0
sg22
g5
sg23
I655037
sg24
I1386690
sg25
F0.712773410079561
sg26
I28798
ssS'NOLES JAMES L'
p301
(dp302
g3
g5
sg4
I774401
sg6
g5
sg7
I00
sg8
g5
sg9
g5
sg11
g5
sg12
g5
sg13
I-94556
sg14
g5
sg15
g5
sg16
g5
sg17
g5
sg18
g5
sg19
g5
sg20
I368705
sg21
g5
sg22
I463261
sg23
g5
sg24
I774401
sg25
F2.0607396919815817
sg26
g5
ssS'KEAN STEVEN J'
p303
(dp304
g3
I12754
sg4
g5
sg6
I41953
sg7
I00
sg8
I300000
sg9
S'steven.kean@enron.com'
p305
sg11
I140
sg12
g5
sg13
g5
sg14
I3639
sg15
g5
sg16
I6759
sg17
I1231
sg18
g5
sg19
I1000000
sg20
I6153642
sg21
I387
sg22
I4131594
sg23
I404338
sg24
I1747522
sg25
F1.604494994198033
sg26
I2022048
ssS'FOWLER PEGGY'
p306
(dp307
g3
I517
sg4
g5
sg6
g5
sg7
I00
sg8
g5
sg9
S'kulvinder.fowler@enron.com'
p308
sg11
I0
sg12
g5
sg13
g5
sg14
I10
sg15
g5
sg16
I36
sg17
g5
sg18
g5
sg19
g5
sg20
I1884748
sg21
I0
sg22
I560170
sg23
g5
sg24
g5
sg25
F2.0607396919815817
sg26
I1324578
ssS'WASAFF GEORGE'
p309
(dp310
g3
I400
sg4
I831299
sg6
g5
sg7
I00
sg8
I200000
sg9
S'george.wasaff@enron.com'
p311
sg11
I22
sg12
I-583325
sg13
g5
sg14
I337
sg15
g5
sg16
I30
sg17
I1425
sg18
g5
sg19
I325000
sg20
I2056427
sg21
I7
sg22
I388167
sg23
I259996
sg24
I1034395
sg25
F1.0770809691683239
sg26
I1668260
ssS'WHITE JR THOMAS E'
p312
(dp313
g3
g5
sg4
g5
sg6
I81353
sg7
I00
sg8
g5
sg9
S'thomas.white@enron.com'
p314
sg11
g5
sg12
g5
sg13
g5
sg14
g5
sg15
g5
sg16
g5
sg17
I1085463
sg18
g5
sg19
I450000
sg20
I15144123
sg21
g5
sg22
I13847074
sg23
I317543
sg24
I1934359
sg25
F1.1474049181758839
sg26
I1297049
ssS'CHRISTODOULOU DIOMEDES'
p315
(dp316
g3
g5
sg4
g5
sg6
g5
sg7
I00
sg8
g5
sg9
S'diomedes.christodoulou@enron.com'
p317
sg11
g5
sg12
g5
sg13
g5
sg14
g5
sg15
g5
sg16
g5
sg17
g5
sg18
g5
sg19
g5
sg20
I6077885
sg21
g5
sg22
I950730
sg23
g5
sg24
g5
sg25
F2.0607396919815817
sg26
I5127155
ssS'ALLEN PHILLIP K'
p318
(dp319
g3
I2902
sg4
I2869717
sg6
I13868
sg7
I00
sg8
I304805
sg9
S'phillip.allen@enron.com'
p320
sg11
I47
sg12
I-3081055
sg13
I-126027
sg14
I1407
sg15
g5
sg16
I2195
sg17
I152
sg18
g5
sg19
I4175000
sg20
I1729541
sg21
I65
sg22
I126027
sg23
I201955
sg24
I4484442
sg25
F2.210183642450069
sg26
I1729541
ssS'SHARP VICTORIA T'
p321
(dp322
g3
I3136
sg4
I187469
sg6
I116337
sg7
I00
sg8
I422158
sg9
S'vicki.sharp@enron.com'
p323
sg11
I24
sg12
g5
sg13
g5
sg14
I2477
sg15
g5
sg16
I136
sg17
I2401
sg18
g5
sg19
I600000
sg20
I494136
sg21
I6
sg22
I213063
sg23
I248146
sg24
I1576511
sg25
F1.4243316170871283
sg26
I281073
ssS'JAEDICKE ROBERT'
p324
(dp325
g3
g5
sg4
g5
sg6
g5
sg7
I00
sg8
g5
sg9
g5
sg11
g5
sg12
I-25000
sg13
I-44093
sg14
g5
sg15
g5
sg16
g5
sg17
g5
sg18
I108750
sg19
g5
sg20
I431750
sg21
g5
sg22
I44093
sg23
g5
sg24
I83750
sg25
F3.7962825717254227
sg26
I431750
ssS'WINOKUR JR. HERBERT S'
p326
(dp327
g3
g5
sg4
g5
sg6
I1413
sg7
I00
sg8
g5
sg9
g5
sg11
g5
sg12
I-25000
sg13
g5
sg14
g5
sg15
g5
sg16
g5
sg17
g5
sg18
I108579
sg19
g5
sg20
g5
sg21
g5
sg22
g5
sg23
g5
sg24
I84992
sg25
F3.9690149397171397
sg26
g5
ssS'BROWN MICHAEL'
p328
(dp329
g3
I1486
sg4
g5
sg6
I49288
sg7
I00
sg8
g5
sg9
S'michael.brown@enron.com'
p330
sg11
I13
sg12
g5
sg13
g5
sg14
I761
sg15
g5
sg16
I41
sg17
g5
sg18
g5
sg19
g5
sg20
g5
sg21
I1
sg22
g5
sg23
g5
sg24
I49288
sg25
F2.0607396919815817
sg26
g5
ssS'BADUM JAMES P'
p331
(dp332
g3
g5
sg4
I178980
sg6
I3486
sg7
I00
sg8
g5
sg9
g5
sg11
g5
sg12
g5
sg13
g5
sg14
g5
sg15
g5
sg16
g5
sg17
g5
sg18
g5
sg19
g5
sg20
I257817
sg21
g5
sg22
g5
sg23
g5
sg24
I182466
sg25
F2.0607396919815817
sg26
I257817
ssS'HUGHES JAMES A'
p333
(dp334
g3
I719
sg4
g5
sg6
g5
sg7
I00
sg8
g5
sg9
S'james.hughes@enron.com'
p335
sg11
I35
sg12
g5
sg13
g5
sg14
I589
sg15
g5
sg16
I34
sg17
g5
sg18
g5
sg19
g5
sg20
I1118394
sg21
I5
sg22
I363428
sg23
g5
sg24
g5
sg25
F2.0607396919815817
sg26
I754966
ssS'REYNOLDS LAWRENCE'
p336
(dp337
g3
g5
sg4
I51365
sg6
I8409
sg7
I00
sg8
I156250
sg9
g5
sg11
g5
sg12
I-200000
sg13
I-140264
sg14
g5
sg15
g5
sg16
g5
sg17
I202052
sg18
g5
sg19
I100000
sg20
I4221891
sg21
g5
sg22
I201483
sg23
I76399
sg24
I394475
sg25
F1.085387429042797
sg26
I4160672
ssS'DIMICHELE RICHARD G'
p338
(dp339
g3
g5
sg4
g5
sg6
I35812
sg7
I00
sg8
I694862
sg9
S'richard.dimichele@enron.com'
p340
sg11
g5
sg12
g5
sg13
g5
sg14
g5
sg15
g5
sg16
g5
sg17
I374689
sg18
g5
sg19
I1000000
sg20
I8317782
sg21
g5
sg22
I126027
sg23
I262788
sg24
I2368151
sg25
F1.873641817277535
sg26
I8191755
ssS'BHATNAGAR SANJAY'
p341
(dp342
g3
I523
sg4
g5
sg6
g5
sg7
I00
sg8
g5
sg9
S'sanjay.bhatnagar@enron.com'
p343
sg11
I0
sg12
g5
sg13
I15456290
sg14
I463
sg15
g5
sg16
I29
sg17
I137864
sg18
I137864
sg19
g5
sg20
S'NaN'
p344
sg21
I1
sg22
I-2604490
sg23
g5
sg24
I15456290
sg25
F1.3176946154299003
sg26
I2604490
ssS'CARTER REBECCA C'
p345
(dp346
g3
I312
sg4
g5
sg6
g5
sg7
I00
sg8
I75000
sg9
S'rebecca.carter@enron.com'
p347
sg11
I29
sg12
I-159792
sg13
I-307301
sg14
I196
sg15
g5
sg16
I15
sg17
I540
sg18
g5
sg19
I300000
sg20
g5
sg21
I7
sg22
I307301
sg23
I261809
sg24
I477557
sg25
F1.067106534764808
sg26
g5
ssS'BUCHANAN HAROLD G'
p348
(dp349
g3
I1088
sg4
g5
sg6
I600
sg7
I00
sg8
I304805
sg9
S'john.buchanan@enron.com'
p350
sg11
I0
sg12
g5
sg13
g5
sg14
I23
sg15
g5
sg16
I125
sg17
I1215
sg18
g5
sg19
I500000
sg20
I1014505
sg21
I0
sg22
I189041
sg23
I248017
sg24
I1054637
sg25
F1.3039356975828773
sg26
I825464
ssS'YEAP SOON'
p351
(dp352
g3
g5
sg4
g5
sg6
I55097
sg7
I00
sg8
g5
sg9
g5
sg11
g5
sg12
g5
sg13
g5
sg14
g5
sg15
g5
sg16
g5
sg17
g5
sg18
g5
sg19
g5
sg20
I192758
sg21
g5
sg22
g5
sg23
g5
sg24
I55097
sg25
F2.0607396919815817
sg26
I192758
ssS'MURRAY JULIA H'
p353
(dp354
g3
I2192
sg4
g5
sg6
I57580
sg7
I00
sg8
I125000
sg9
S'julia.murray@enron.com'
p355
sg11
I11
sg12
g5
sg13
g5
sg14
I395
sg15
g5
sg16
I45
sg17
I330
sg18
g5
sg19
I400000
sg20
I597461
sg21
I2
sg22
I196983
sg23
I229284
sg24
I812194
sg25
F1.2106736722157945
sg26
I400478
ssS'GARLAND C KEVIN'
p356
(dp357
g3
I209
sg4
g5
sg6
I48405
sg7
I00
sg8
I375304
sg9
S'kevin.garland@enron.com'
p358
sg11
I10
sg12
g5
sg13
g5
sg14
I178
sg15
g5
sg16
I44
sg17
I60814
sg18
g5
sg19
I850000
sg20
I896153
sg21
I27
sg22
I259907
sg23
I231946
sg24
I1566469
sg25
F1.7602179377768936
sg26
I636246
ssS'DODSON KEITH'
p359
(dp360
g3
I176
sg4
g5
sg6
I28164
sg7
I00
sg8
g5
sg9
S'keith.dodson@enron.com'
p361
sg11
I10
sg12
g5
sg13
g5
sg14
I114
sg15
g5
sg16
I14
sg17
I774
sg18
g5
sg19
I70000
sg20
g5
sg21
I3
sg22
g5
sg23
I221003
sg24
I319941
sg25
F0.8117293554157321
sg26
g5
ssS'YEAGER F SCOTT'
p362
(dp363
g3
g5
sg4
g5
sg6
I53947
sg7
I01
sg8
g5
sg9
S'scott.yeager@enron.com'
p364
sg11
g5
sg12
g5
sg13
g5
sg14
g5
sg15
g5
sg16
g5
sg17
I147950
sg18
g5
sg19
g5
sg20
I11884758
sg21
g5
sg22
I3576206
sg23
I158403
sg24
I360300
sg25
F2.4110029151780044
sg26
I8308552
ssS'HIRKO JOSEPH'
p365
(dp366
g3
g5
sg4
I10259
sg6
I77978
sg7
I01
sg8
g5
sg9
S'joe.hirko@enron.com'
p367
sg11
g5
sg12
g5
sg13
g5
sg14
g5
sg15
g5
sg16
g5
sg17
I2856
sg18
g5
sg19
g5
sg20
I30766064
sg21
g5
sg22
g5
sg23
g5
sg24
I91093
sg25
F2.0607396919815817
sg26
I30766064
ssS'DIETRICH JANET R'
p368
(dp369
g3
I2572
sg4
g5
sg6
I3475
sg7
I00
sg8
I556416
sg9
S'janet.dietrich@enron.com'
p370
sg11
I305
sg12
g5
sg13
g5
sg14
I1902
sg15
g5
sg16
I63
sg17
I473
sg18
g5
sg19
I600000
sg20
I1865087
sg21
I14
sg22
I315068
sg23
I250100
sg24
I1410464
sg25
F1.4209830703655488
sg26
I1550019
ssS'DERRICK JR. JAMES V'
p371
(dp372
g3
I2181
sg4
g5
sg6
I51124
sg7
I00
sg8
I484000
sg9
S'james.derrick@enron.com'
p373
sg11
I64
sg12
I-1284000
sg13
I-1787380
sg14
I1401
sg15
g5
sg16
I909
sg17
I7482
sg18
g5
sg19
I800000
sg20
I8831913
sg21
I20
sg22
I1787380
sg23
I492375
sg24
I550981
sg25
F1.1349377455033547
sg26
I8831913
ssS'FREVERT MARK A'
p374
(dp375
g3
I3275
sg4
I6426990
sg6
I86987
sg7
I00
sg8
I1617011
sg9
S'mark.frevert@enron.com'
p376
sg11
I242
sg12
I-3367011
sg13
g5
sg14
I2979
sg15
I2000000
sg16
I21
sg17
I7427621
sg18
g5
sg19
I2000000
sg20
I14622185
sg21
I6
sg22
I4188667
sg23
I1060932
sg24
I17252530
sg25
F1.2120777074140296
sg26
I10433518
ssS'PAI LOU L'
p377
(dp378
g3
g5
sg4
g5
sg6
I32047
sg7
I00
sg8
g5
sg9
S'lou.pai@enron.com'
p379
sg11
g5
sg12
g5
sg13
g5
sg14
g5
sg15
g5
sg16
g5
sg17
I1829457
sg18
g5
sg19
I1000000
sg20
I23817930
sg21
g5
sg22
I8453763
sg23
I261879
sg24
I3123383
sg25
F1.8756623205355196
sg26
I15364167
ssS'BAY FRANKLIN R'
p380
(dp381
g3
g5
sg4
I260455
sg6
I129142
sg7
I00
sg8
g5
sg9
S'frank.bay@enron.com'
p382
sg11
g5
sg12
I-201641
sg13
I-82782
sg14
g5
sg15
g5
sg16
g5
sg17
I69
sg18
g5
sg19
I400000
sg20
I63014
sg21
g5
sg22
I145796
sg23
I239671
sg24
I827696
sg25
F1.3633007939960846
sg26
g5
ssS'HAYSLETT RODERICK J'
p383
(dp384
g3
I2649
sg4
g5
sg6
g5
sg7
I00
sg8
g5
sg9
S'rod.hayslett@enron.com'
p385
sg11
I35
sg12
g5
sg13
g5
sg14
I571
sg15
g5
sg16
I1061
sg17
g5
sg18
g5
sg19
g5
sg20
I346663
sg21
I38
sg22
I346663
sg23
g5
sg24
g5
sg25
F2.0607396919815817
sg26
g5
ssS'FUGH JOHN L'
p386
(dp387
g3
g5
sg4
I50591
sg6
g5
sg7
I00
sg8
g5
sg9
g5
sg11
g5
sg12
g5
sg13
g5
sg14
g5
sg15
g5
sg16
g5
sg17
g5
sg18
g5
sg19
g5
sg20
I176378
sg21
g5
sg22
g5
sg23
g5
sg24
I50591
sg25
F2.0607396919815817
sg26
I176378
ssS'FALLON JAMES B'
p388
(dp389
g3
I1755
sg4
g5
sg6
I95924
sg7
I00
sg8
I374347
sg9
S'jim.fallon@enron.com'
p390
sg11
I42
sg12
g5
sg13
g5
sg14
I1604
sg15
g5
sg16
I75
sg17
I401481
sg18
g5
sg19
I2500000
sg20
I2332399
sg21
I37
sg22
I1392142
sg23
I304588
sg24
I3676340
sg25
F3.4789049981986855
sg26
I940257
ssS'KOENIG MARK E'
p391
(dp392
g3
I2374
sg4
g5
sg6
I127017
sg7
I01
sg8
I300000
sg9
S'mark.koenig@enron.com'
p393
sg11
I53
sg12
g5
sg13
g5
sg14
I2271
sg15
g5
sg16
I61
sg17
I150458
sg18
g5
sg19
I700000
sg20
I1920055
sg21
I15
sg22
I1248318
sg23
I309946
sg24
I1587421
sg25
F1.437773101206354
sg26
I671737
ssS'SAVAGE FRANK'
p394
(dp395
g3
g5
sg4
g5
sg6
g5
sg7
I00
sg8
g5
sg9
g5
sg11
g5
sg12
I-121284
sg13
g5
sg14
g5
sg15
g5
sg16
g5
sg17
g5
sg18
I125034
sg19
g5
sg20
g5
sg21
g5
sg22
g5
sg23
g5
sg24
I3750
sg25
F3.2638134037257123
sg26
g5
ssS'IZZO LAWRENCE L'
p396
(dp397
g3
I496
sg4
g5
sg6
I28093
sg7
I00
sg8
I312500
sg9
S'larry.izzo@enron.com'
p398
sg11
I28
sg12
g5
sg13
g5
sg14
I437
sg15
g5
sg16
I19
sg17
I1553729
sg18
g5
sg19
g5
sg20
I5819980
sg21
I5
sg22
I3654808
sg23
I85274
sg24
I1979596
sg25
F2.6756103460944134
sg26
I2165172
ssS'TILNEY ELIZABETH A'
p399
(dp400
g3
I460
sg4
g5
sg6
g5
sg7
I00
sg8
I275000
sg9
S'elizabeth.tilney@enron.com'
p401
sg11
I10
sg12
I-575000
sg13
g5
sg14
I379
sg15
g5
sg16
I19
sg17
I152055
sg18
g5
sg19
I300000
sg20
I1168042
sg21
I11
sg22
I576792
sg23
I247338
sg24
I399393
sg25
F1.0640393609440402
sg26
I591250
ssS'MARTIN AMANDA K'
p402
(dp403
g3
I1522
sg4
I85430
sg6
I8211
sg7
I00
sg8
I5145434
sg9
S'a..martin@enron.com'
p404
sg11
I8
sg12
g5
sg13
g5
sg14
I477
sg15
g5
sg16
I230
sg17
I2818454
sg18
g5
sg19
g5
sg20
I2070306
sg21
I0
sg22
g5
sg23
I349487
sg24
I8407016
sg25
F1.915907960464567
sg26
I2070306
ssS'BUY RICHARD B'
p405
(dp406
g3
I3523
sg4
I649584
sg6
g5
sg7
I00
sg8
I769862
sg9
S'rick.buy@enron.com'
p407
sg11
I156
sg12
I-694862
sg13
g5
sg14
I2333
sg15
g5
sg16
I1053
sg17
I400572
sg18
g5
sg19
I900000
sg20
I3444470
sg21
I71
sg22
I901657
sg23
I330546
sg24
I2355702
sg25
F1.5553438241168394
sg26
I2542813
ssS'GRAMM WENDY L'
p408
(dp409
g3
g5
sg4
g5
sg6
g5
sg7
I00
sg8
g5
sg9
g5
sg11
g5
sg12
g5
sg13
g5
sg14
g5
sg15
g5
sg16
g5
sg17
g5
sg18
I119292
sg19
g5
sg20
g5
sg21
g5
sg22
g5
sg23
g5
sg24
I119292
sg25
F2.0607396919815817
sg26
g5
ssS'CAUSEY RICHARD A'
p410
(dp411
g3
I1892
sg4
g5
sg6
I30674
sg7
I01
sg8
I350000
sg9
S'richard.causey@enron.com'
p412
sg11
I58
sg12
I-235000
sg13
g5
sg14
I1585
sg15
g5
sg16
I49
sg17
I307895
sg18
g5
sg19
I1000000
sg20
I2502063
sg21
I12
sg22
I2502063
sg23
I415189
sg24
I1868758
sg25
F1.8994476990536597
sg26
g5
ssg25
(dp413
g3
F0.0
sg4
F0.0
sg6
F0.0
sg7
F0.0
sg8
F0.0
sg9
F0.0
sg11
F0.0
sg12
F0.0
sg13
F0.0
sg14
F0.0
sg15
F0.0
sg16
F0.0
sg17
F0.0
sg18
F0.0
sg19
F0.0
sg20
F0.0
sg21
F0.0
sg22
F0.0
sg23
F0.0
sg24
F0.0
sg25
F0.0
sg26
F0.0
ssS'TAYLOR MITCHELL S'
p414
(dp415
g3
I533
sg4
I227449
sg6
g5
sg7
I00
sg8
g5
sg9
S'mitchell.taylor@enron.com'
p416
sg11
I0
sg12
g5
sg13
g5
sg14
I300
sg15
g5
sg16
I29
sg17
g5
sg18
g5
sg19
I600000
sg20
I3745048
sg21
I0
sg22
I563798
sg23
I265214
sg24
I1092663
sg25
F1.3956047689325013
sg26
I3181250
ssS'DONAHUE JR JEFFREY M'
p417
(dp418
g3
I865
sg4
g5
sg6
I96268
sg7
I00
sg8
g5
sg9
S'jeff.donahue@enron.com'
p419
sg11
I188
sg12
I-300000
sg13
g5
sg14
I772
sg15
g5
sg16
I22
sg17
I891
sg18
g5
sg19
I800000
sg20
I1080988
sg21
I11
sg22
I315068
sg23
I278601
sg24
I875760
sg25
F1.9011373986564146
sg26
I765920
ssS'GLISAN JR BEN F'
p420
(dp421
g3
I873
sg4
g5
sg6
I125978
sg7
I01
sg8
I71023
sg9
S'ben.glisan@enron.com'
p422
sg11
I52
sg12
g5
sg13
g5
sg14
I874
sg15
g5
sg16
I16
sg17
I200308
sg18
g5
sg19
I600000
sg20
I778546
sg21
I6
sg22
I393818
sg23
I274975
sg24
I1272284
sg25
F1.3796910968629197
sg26
I384728
ss.